target datalayout = "e-m:e-p270:32:32-p271:32:32-p272:64:64-i64:64-i128:128-f80:128-n8:16:32:64-S128"
target triple = "x86_64-pc-linux-gnu"

; Function Attrs: mustprogress nounwind uwtable
define hidden noundef zeroext i1 @_Z21product_iterator_nextjPKjPj(i32 noundef %0, ptr noundef %1, ptr noundef %2) #4 {
  %4 = alloca i1, align 1
  %5 = alloca i32, align 4
  %6 = alloca ptr, align 8
  %7 = alloca ptr, align 8
  %8 = alloca i32, align 4
  %9 = alloca i32, align 4
  store i32 %0, ptr %5, align 4, !tbaa !3
  store ptr %1, ptr %6, align 8, !tbaa !13
  store ptr %2, ptr %7, align 8, !tbaa !13
  call void @llvm.lifetime.start.p0(i64 4, ptr %8) #3
  store i32 0, ptr %8, align 4, !tbaa !3
  br label %10

10:                                               ; preds = %39, %3
  %11 = load i32, ptr %8, align 4, !tbaa !3
  %12 = load i32, ptr %5, align 4, !tbaa !3
  %13 = icmp ult i32 %11, %12
  br i1 %13, label %15, label %14

14:                                               ; preds = %10
  store i32 2, ptr %9, align 4
  br label %42

15:                                               ; preds = %10
  %16 = load ptr, ptr %7, align 8, !tbaa !13
  %17 = load i32, ptr %8, align 4, !tbaa !3
  %18 = zext i32 %17 to i64
  %19 = getelementptr inbounds nuw i32, ptr %16, i64 %18
  %20 = load i32, ptr %19, align 4, !tbaa !3
  %21 = add i32 %20, 1
  store i32 %21, ptr %19, align 4, !tbaa !3
  %22 = load ptr, ptr %7, align 8, !tbaa !13
  %23 = load i32, ptr %8, align 4, !tbaa !3
  %24 = zext i32 %23 to i64
  %25 = getelementptr inbounds nuw i32, ptr %22, i64 %24
  %26 = load i32, ptr %25, align 4, !tbaa !3
  %27 = load ptr, ptr %6, align 8, !tbaa !13
  %28 = load i32, ptr %8, align 4, !tbaa !3
  %29 = zext i32 %28 to i64
  %30 = getelementptr inbounds nuw i32, ptr %27, i64 %29
  %31 = load i32, ptr %30, align 4, !tbaa !3
  %32 = icmp ult i32 %26, %31
  br i1 %32, label %33, label %34

33:                                               ; preds = %15
  store i1 true, ptr %4, align 1
  store i32 1, ptr %9, align 4
  br label %42

34:                                               ; preds = %15
  %35 = load ptr, ptr %7, align 8, !tbaa !13
  %36 = load i32, ptr %8, align 4, !tbaa !3
  %37 = zext i32 %36 to i64
  %38 = getelementptr inbounds nuw i32, ptr %35, i64 %37
  store i32 0, ptr %38, align 4, !tbaa !3
  br label %39

39:                                               ; preds = %34
  %40 = load i32, ptr %8, align 4, !tbaa !3
  %41 = add i32 %40, 1
  store i32 %41, ptr %8, align 4, !tbaa !3
  br label %10, !llvm.loop !15

42:                                               ; preds = %33, %14
  call void @llvm.lifetime.end.p0(i64 4, ptr %8) #3
  %43 = load i32, ptr %9, align 4
  switch i32 %43, label %47 [
    i32 2, label %44
    i32 1, label %45
  ]

44:                                               ; preds = %42
  store i1 false, ptr %4, align 1
  br label %45

45:                                               ; preds = %44, %42
  %46 = load i1, ptr %4, align 1
  ret i1 %46

47:                                               ; preds = %42
  unreachable
}