; Function Attrs: mustprogress nofree norecurse nosync nounwind memory(argmem: readwrite) uwtable
define hidden noundef zeroext i1 @_Z21product_iterator_nextjPKjPj(i32 noundef %0, ptr noundef readonly captures(none) %1, ptr noundef captures(none) %2) local_unnamed_addr #8 {
  %.not14.not = icmp eq i32 %0, 0
  br i1 %.not14.not, label %._crit_edge, label %.lr.ph.preheader

.lr.ph.preheader:                                 ; preds = %3
  %wide.trip.count = zext i32 %0 to i64
  br label %.lr.ph

.lr.ph:                                           ; preds = %.lr.ph.preheader, %10
  %indvars.iv = phi i64 [ 0, %.lr.ph.preheader ], [ %indvars.iv.next, %10 ]
  %4 = getelementptr inbounds nuw i32, ptr %2, i64 %indvars.iv
  %5 = load i32, ptr %4, align 4, !tbaa !3
  %6 = add i32 %5, 1
  store i32 %6, ptr %4, align 4, !tbaa !3
  %7 = getelementptr inbounds nuw i32, ptr %1, i64 %indvars.iv
  %8 = load i32, ptr %7, align 4, !tbaa !3
  %9 = icmp ult i32 %6, %8
  br i1 %9, label %._crit_edge, label %10

10:                                               ; preds = %.lr.ph
  store i32 0, ptr %4, align 4, !tbaa !3
  %indvars.iv.next = add nuw nsw i64 %indvars.iv, 1
  %exitcond.not = icmp eq i64 %indvars.iv.next, %wide.trip.count
  br i1 %exitcond.not, label %._crit_edge, label %.lr.ph, !llvm.loop !11

._crit_edge:                                      ; preds = %10, %.lr.ph, %3
  %.not.lcssa = phi i1 [ false, %3 ], [ %9, %.lr.ph ], [ %9, %10 ]
  ret i1 %.not.lcssa
}